; Function Attrs: mustprogress uwtable
define hidden noundef zeroext i1 @_ZNK19OpenColorIO_v2_4dev11GammaOpData6isNoOpEv(ptr noundef nonnull align 8 dereferenceable(272) %this) unnamed_addr #3 align 2 {
entry:
  %vtable = load ptr, ptr %this, align 8
  %vfn = getelementptr inbounds i8, ptr %vtable, i64 40
  %0 = load ptr, ptr %vfn, align 8
  %call = tail call noundef zeroext i1 %0(ptr noundef nonnull align 8 dereferenceable(272) %this)
  %m_style.i.i = getelementptr inbounds i8, ptr %this, i64 168
  %1 = load i32, ptr %m_style.i.i, align 8
  %spec.select.i = icmp ugt i32 %1, 1
  %2 = select i1 %call, i1 %spec.select.i, i1 false
  ret i1 %2
}